target datalayout = "e-m:e-p270:32:32-p271:32:32-p272:64:64-i64:64-i128:128-f80:128-n8:16:32:64-S128"
target triple = "x86_64-pc-linux-gnu"

%"class.Imath_3_2::Vec2" = type { i32, i32 }
%class.Image = type { %"class.Imath_3_2::Box", %"class.std::map" }
%"class.Imath_3_2::Box" = type { %"class.Imath_3_2::Vec2", %"class.Imath_3_2::Vec2" }
%"class.std::map" = type { %"class.std::_Rb_tree" }
%"class.std::_Rb_tree" = type { %"struct.std::_Rb_tree<std::__cxx11::basic_string<char>, std::pair<const std::__cxx11::basic_string<char>, ImageChannel *>, std::_Select1st<std::pair<const std::__cxx11::basic_string<char>, ImageChannel *>>, std::less<std::__cxx11::basic_string<char>>>::_Rb_tree_impl" }
%"struct.std::_Rb_tree<std::__cxx11::basic_string<char>, std::pair<const std::__cxx11::basic_string<char>, ImageChannel *>, std::_Select1st<std::pair<const std::__cxx11::basic_string<char>, ImageChannel *>>, std::less<std::__cxx11::basic_string<char>>>::_Rb_tree_impl" = type { [8 x i8], %"struct.std::_Rb_tree_header" }
%"struct.std::_Rb_tree_header" = type { %"struct.std::_Rb_tree_node_base", i64 }
%"struct.std::_Rb_tree_node_base" = type { i32, ptr, ptr, ptr }
%"struct.Imf_3_4::Channel" = type <{ i32, i32, i32, i8, [3 x i8] }>

@.str = private unnamed_addr constant [22 x i8] c"Unknown channel type.\00", align 1
@_ZTIN7Iex_3_46ArgExcE = external constant ptr

; Function Attrs: mustprogress uwtable
define dso_local void @_ZN5Image10addChannelERKNSt7__cxx1112basic_stringIcSt11char_traitsIcESaIcEEERKN7Imf_3_47ChannelE(ptr noundef nonnull align 8 dereferenceable(64) %0, ptr noundef nonnull align 8 dereferenceable(32) %1, ptr noundef nonnull align 4 dereferenceable(13) %2) #8 align 2 personality ptr @__gxx_personality_v0 {
  %4 = alloca ptr, align 8
  %5 = alloca ptr, align 8
  %6 = alloca ptr, align 8
  %7 = alloca ptr, align 8
  %8 = alloca i32, align 4
  store ptr %0, ptr %4, align 8, !tbaa !9
  store ptr %1, ptr %5, align 8, !tbaa !38
  store ptr %2, ptr %6, align 8, !tbaa !40
  %9 = load ptr, ptr %4, align 8
  %10 = load ptr, ptr %6, align 8, !tbaa !40
  %11 = getelementptr inbounds nuw %"struct.Imf_3_4::Channel", ptr %10, i32 0, i32 0
  %12 = load i32, ptr %11, align 4, !tbaa !42
  switch i32 %12, label %61 [
    i32 1, label %13
    i32 2, label %29
    i32 0, label %45
  ]

13:                                               ; preds = %3
  %14 = call noalias noundef nonnull ptr @_Znwm(i64 noundef 48) #22
  %15 = load ptr, ptr %6, align 8, !tbaa !40
  %16 = getelementptr inbounds nuw %"struct.Imf_3_4::Channel", ptr %15, i32 0, i32 1
  %17 = load i32, ptr %16, align 4, !tbaa !46
  %18 = load ptr, ptr %6, align 8, !tbaa !40
  %19 = getelementptr inbounds nuw %"struct.Imf_3_4::Channel", ptr %18, i32 0, i32 2
  %20 = load i32, ptr %19, align 4, !tbaa !47
  invoke void @_ZN17TypedImageChannelIN9Imath_3_24halfEEC2ER5Imageii(ptr noundef nonnull align 8 dereferenceable(48) %14, ptr noundef nonnull align 8 dereferenceable(64) %9, i32 noundef %17, i32 noundef %20)
          to label %21 unwind label %25

21:                                               ; preds = %13
  %22 = getelementptr inbounds nuw %class.Image, ptr %9, i32 0, i32 1
  %23 = load ptr, ptr %5, align 8, !tbaa !38
  %24 = call noundef nonnull align 8 dereferenceable(8) ptr @_ZNSt3mapINSt7__cxx1112basic_stringIcSt11char_traitsIcESaIcEEEP12ImageChannelSt4lessIS5_ESaISt4pairIKS5_S7_EEEixERSB_(ptr noundef nonnull align 8 dereferenceable(48) %22, ptr noundef nonnull align 8 dereferenceable(32) %23)
  store ptr %14, ptr %24, align 8, !tbaa !4
  br label %68

25:                                               ; preds = %13
  %26 = landingpad { ptr, i32 }
          cleanup
  %27 = extractvalue { ptr, i32 } %26, 0
  store ptr %27, ptr %7, align 8
  %28 = extractvalue { ptr, i32 } %26, 1
  store i32 %28, ptr %8, align 4
  call void @_ZdlPvm(ptr noundef %14, i64 noundef 48) #23
  br label %69

29:                                               ; preds = %3
  %30 = call noalias noundef nonnull ptr @_Znwm(i64 noundef 48) #22
  %31 = load ptr, ptr %6, align 8, !tbaa !40
  %32 = getelementptr inbounds nuw %"struct.Imf_3_4::Channel", ptr %31, i32 0, i32 1
  %33 = load i32, ptr %32, align 4, !tbaa !46
  %34 = load ptr, ptr %6, align 8, !tbaa !40
  %35 = getelementptr inbounds nuw %"struct.Imf_3_4::Channel", ptr %34, i32 0, i32 2
  %36 = load i32, ptr %35, align 4, !tbaa !47
  invoke void @_ZN17TypedImageChannelIfEC2ER5Imageii(ptr noundef nonnull align 8 dereferenceable(48) %30, ptr noundef nonnull align 8 dereferenceable(64) %9, i32 noundef %33, i32 noundef %36)
          to label %37 unwind label %41

37:                                               ; preds = %29
  %38 = getelementptr inbounds nuw %class.Image, ptr %9, i32 0, i32 1
  %39 = load ptr, ptr %5, align 8, !tbaa !38
  %40 = call noundef nonnull align 8 dereferenceable(8) ptr @_ZNSt3mapINSt7__cxx1112basic_stringIcSt11char_traitsIcESaIcEEEP12ImageChannelSt4lessIS5_ESaISt4pairIKS5_S7_EEEixERSB_(ptr noundef nonnull align 8 dereferenceable(48) %38, ptr noundef nonnull align 8 dereferenceable(32) %39)
  store ptr %30, ptr %40, align 8, !tbaa !4
  br label %68

41:                                               ; preds = %29
  %42 = landingpad { ptr, i32 }
          cleanup
  %43 = extractvalue { ptr, i32 } %42, 0
  store ptr %43, ptr %7, align 8
  %44 = extractvalue { ptr, i32 } %42, 1
  store i32 %44, ptr %8, align 4
  call void @_ZdlPvm(ptr noundef %30, i64 noundef 48) #23
  br label %69

45:                                               ; preds = %3
  %46 = call noalias noundef nonnull ptr @_Znwm(i64 noundef 48) #22
  %47 = load ptr, ptr %6, align 8, !tbaa !40
  %48 = getelementptr inbounds nuw %"struct.Imf_3_4::Channel", ptr %47, i32 0, i32 1
  %49 = load i32, ptr %48, align 4, !tbaa !46
  %50 = load ptr, ptr %6, align 8, !tbaa !40
  %51 = getelementptr inbounds nuw %"struct.Imf_3_4::Channel", ptr %50, i32 0, i32 2
  %52 = load i32, ptr %51, align 4, !tbaa !47
  invoke void @_ZN17TypedImageChannelIjEC2ER5Imageii(ptr noundef nonnull align 8 dereferenceable(48) %46, ptr noundef nonnull align 8 dereferenceable(64) %9, i32 noundef %49, i32 noundef %52)
          to label %53 unwind label %57

53:                                               ; preds = %45
  %54 = getelementptr inbounds nuw %class.Image, ptr %9, i32 0, i32 1
  %55 = load ptr, ptr %5, align 8, !tbaa !38
  %56 = call noundef nonnull align 8 dereferenceable(8) ptr @_ZNSt3mapINSt7__cxx1112basic_stringIcSt11char_traitsIcESaIcEEEP12ImageChannelSt4lessIS5_ESaISt4pairIKS5_S7_EEEixERSB_(ptr noundef nonnull align 8 dereferenceable(48) %54, ptr noundef nonnull align 8 dereferenceable(32) %55)
  store ptr %46, ptr %56, align 8, !tbaa !4
  br label %68

57:                                               ; preds = %45
  %58 = landingpad { ptr, i32 }
          cleanup
  %59 = extractvalue { ptr, i32 } %58, 0
  store ptr %59, ptr %7, align 8
  %60 = extractvalue { ptr, i32 } %58, 1
  store i32 %60, ptr %8, align 4
  call void @_ZdlPvm(ptr noundef %46, i64 noundef 48) #23
  br label %69

61:                                               ; preds = %3
  %62 = call ptr @__cxa_allocate_exception(i64 72) #3
  invoke void @_ZN7Iex_3_46ArgExcC1EPKc(ptr noundef nonnull align 8 dereferenceable(72) %62, ptr noundef @.str)
          to label %63 unwind label %64

63:                                               ; preds = %61
  call void @__cxa_throw(ptr %62, ptr @_ZTIN7Iex_3_46ArgExcE, ptr @_ZN7Iex_3_46ArgExcD1Ev) #24
  unreachable

64:                                               ; preds = %61
  %65 = landingpad { ptr, i32 }
          cleanup
  %66 = extractvalue { ptr, i32 } %65, 0
  store ptr %66, ptr %7, align 8
  %67 = extractvalue { ptr, i32 } %65, 1
  store i32 %67, ptr %8, align 4
  call void @__cxa_free_exception(ptr %62) #3
  br label %69

68:                                               ; preds = %53, %37, %21
  ret void

69:                                               ; preds = %64, %57, %41, %25
  %70 = load ptr, ptr %7, align 8
  %71 = load i32, ptr %8, align 4
  %72 = insertvalue { ptr, i32 } poison, ptr %70, 0
  %73 = insertvalue { ptr, i32 } %72, i32 %71, 1
  resume { ptr, i32 } %73
}