; Function Attrs: mustprogress uwtable
define dso_local void @_ZN5Image10addChannelERKNSt7__cxx1112basic_stringIcSt11char_traitsIcESaIcEEERKN7Imf_3_47ChannelE(ptr noundef nonnull align 8 dereferenceable(64) %0, ptr noundef nonnull align 8 dereferenceable(32) %1, ptr noundef nonnull readonly align 4 captures(none) dereferenceable(13) %2) local_unnamed_addr #10 align 2 personality ptr @__gxx_personality_v0 {
  %4 = load i32, ptr %2, align 4, !tbaa !34
  switch i32 %4, label %29 [
    i32 1, label %5
    i32 2, label %13
    i32 0, label %21
  ]

5:                                                ; preds = %3
  %6 = tail call noalias noundef nonnull dereferenceable(48) ptr @_Znwm(i64 noundef 48) #27
  %7 = getelementptr inbounds nuw i8, ptr %2, i64 4
  %8 = load i32, ptr %7, align 4, !tbaa !38
  %9 = getelementptr inbounds nuw i8, ptr %2, i64 8
  %10 = load i32, ptr %9, align 4, !tbaa !39
  invoke void @_ZN17TypedImageChannelIN9Imath_3_24halfEEC2ER5Imageii(ptr noundef nonnull align 8 dereferenceable(48) %6, ptr noundef nonnull align 8 dereferenceable(64) %0, i32 noundef %8, i32 noundef %10)
          to label %34 unwind label %11

11:                                               ; preds = %5
  %12 = landingpad { ptr, i32 }
          cleanup
  tail call void @_ZdlPvm(ptr noundef nonnull %6, i64 noundef 48) #28
  br label %37

13:                                               ; preds = %3
  %14 = tail call noalias noundef nonnull dereferenceable(48) ptr @_Znwm(i64 noundef 48) #27
  %15 = getelementptr inbounds nuw i8, ptr %2, i64 4
  %16 = load i32, ptr %15, align 4, !tbaa !38
  %17 = getelementptr inbounds nuw i8, ptr %2, i64 8
  %18 = load i32, ptr %17, align 4, !tbaa !39
  invoke void @_ZN17TypedImageChannelIfEC2ER5Imageii(ptr noundef nonnull align 8 dereferenceable(48) %14, ptr noundef nonnull align 8 dereferenceable(64) %0, i32 noundef %16, i32 noundef %18)
          to label %34 unwind label %19

19:                                               ; preds = %13
  %20 = landingpad { ptr, i32 }
          cleanup
  tail call void @_ZdlPvm(ptr noundef nonnull %14, i64 noundef 48) #28
  br label %37

21:                                               ; preds = %3
  %22 = tail call noalias noundef nonnull dereferenceable(48) ptr @_Znwm(i64 noundef 48) #27
  %23 = getelementptr inbounds nuw i8, ptr %2, i64 4
  %24 = load i32, ptr %23, align 4, !tbaa !38
  %25 = getelementptr inbounds nuw i8, ptr %2, i64 8
  %26 = load i32, ptr %25, align 4, !tbaa !39
  invoke void @_ZN17TypedImageChannelIjEC2ER5Imageii(ptr noundef nonnull align 8 dereferenceable(48) %22, ptr noundef nonnull align 8 dereferenceable(64) %0, i32 noundef %24, i32 noundef %26)
          to label %34 unwind label %27

27:                                               ; preds = %21
  %28 = landingpad { ptr, i32 }
          cleanup
  tail call void @_ZdlPvm(ptr noundef nonnull %22, i64 noundef 48) #28
  br label %37

29:                                               ; preds = %3
  %30 = tail call ptr @__cxa_allocate_exception(i64 72) #25
  invoke void @_ZN7Iex_3_46ArgExcC1EPKc(ptr noundef nonnull align 8 dereferenceable(72) %30, ptr noundef nonnull @.str)
          to label %31 unwind label %32

31:                                               ; preds = %29
  tail call void @__cxa_throw(ptr nonnull %30, ptr nonnull @_ZTIN7Iex_3_46ArgExcE, ptr nonnull @_ZN7Iex_3_46ArgExcD1Ev) #29
  unreachable

32:                                               ; preds = %29
  %33 = landingpad { ptr, i32 }
          cleanup
  tail call void @__cxa_free_exception(ptr nonnull %30) #25
  br label %37

34:                                               ; preds = %21, %13, %5
  %.sink = phi ptr [ %6, %5 ], [ %14, %13 ], [ %22, %21 ]
  %35 = getelementptr inbounds nuw i8, ptr %0, i64 16
  %36 = tail call noundef nonnull align 8 dereferenceable(8) ptr @_ZNSt3mapINSt7__cxx1112basic_stringIcSt11char_traitsIcESaIcEEEP12ImageChannelSt4lessIS5_ESaISt4pairIKS5_S7_EEEixERSB_(ptr noundef nonnull align 8 dereferenceable(48) %35, ptr noundef nonnull align 8 dereferenceable(32) %1)
  store ptr %.sink, ptr %36, align 8, !tbaa !40
  ret void

37:                                               ; preds = %32, %27, %19, %11
  %.pn = phi { ptr, i32 } [ %33, %32 ], [ %28, %27 ], [ %20, %19 ], [ %12, %11 ]
  resume { ptr, i32 } %.pn
}